target datalayout = "e-m:e-p270:32:32-p271:32:32-p272:64:64-i64:64-i128:128-f80:128-n8:16:32:64-S128"
target triple = "x86_64-pc-linux-gnu"

%struct._object = type { %union.anon, ptr }
%union.anon = type { i64 }
%struct._typeobject = type { %struct.PyVarObject, ptr, i64, i64, ptr, i64, ptr, ptr, ptr, ptr, ptr, ptr, ptr, ptr, ptr, ptr, ptr, ptr, ptr, i64, ptr, ptr, ptr, ptr, i64, ptr, ptr, ptr, ptr, ptr, ptr, ptr, ptr, ptr, i64, ptr, ptr, ptr, ptr, ptr, ptr, ptr, ptr, ptr, ptr, ptr, i32, ptr, ptr, i8, i16 }
%struct.PyVarObject = type { %struct._object, i64 }

@.str.8 = private unnamed_addr constant [10 x i8] c"dcgettext\00", align 1
@_Py_NoneStruct = external global %struct._object, align 8
@PyExc_ValueError = external global ptr, align 8
@.str.14 = private unnamed_addr constant [24 x i8] c"embedded null character\00", align 1
@.str.15 = private unnamed_addr constant [11 x i8] c"argument 2\00", align 1
@.str.16 = private unnamed_addr constant [12 x i8] c"str or None\00", align 1
@.str.38 = private unnamed_addr constant [11 x i8] c"argument 1\00", align 1
@.str.39 = private unnamed_addr constant [4 x i8] c"str\00", align 1

; Function Attrs: nounwind uwtable
define internal ptr @_locale_dcgettext_impl(ptr noundef %0, ptr noundef %1, ptr noundef %2, i32 noundef %3) #0 {
  %5 = alloca ptr, align 8
  %6 = alloca ptr, align 8
  %7 = alloca ptr, align 8
  %8 = alloca i32, align 4
  store ptr %0, ptr %5, align 8, !tbaa !4
  store ptr %1, ptr %6, align 8, !tbaa !20
  store ptr %2, ptr %7, align 8, !tbaa !20
  store i32 %3, ptr %8, align 4, !tbaa !14
  %9 = load ptr, ptr %6, align 8, !tbaa !20
  %10 = load ptr, ptr %7, align 8, !tbaa !20
  %11 = load i32, ptr %8, align 4, !tbaa !14
  %12 = call ptr @dcgettext(ptr noundef %9, ptr noundef %10, i32 noundef %11) #9
  %13 = call ptr @PyUnicode_DecodeLocale(ptr noundef %12, ptr noundef null)
  ret ptr %13
}

; Function Attrs: inlinehint nounwind uwtable
define internal i32 @PyType_HasFeature(ptr noundef %0, i64 noundef %1) #3 {
  %3 = alloca ptr, align 8
  %4 = alloca i64, align 8
  %5 = alloca i64, align 8
  store ptr %0, ptr %3, align 8, !tbaa !22
  store i64 %1, ptr %4, align 8, !tbaa !18
  call void @llvm.lifetime.start.p0(i64 8, ptr %5) #9
  %6 = load ptr, ptr %3, align 8, !tbaa !22
  %7 = getelementptr inbounds nuw %struct._typeobject, ptr %6, i32 0, i32 19
  %8 = load i64, ptr %7, align 8, !tbaa !24
  store i64 %8, ptr %5, align 8, !tbaa !18
  %9 = load i64, ptr %5, align 8, !tbaa !18
  %10 = load i64, ptr %4, align 8, !tbaa !18
  %11 = and i64 %9, %10
  %12 = icmp ne i64 %11, 0
  %13 = zext i1 %12 to i32
  call void @llvm.lifetime.end.p0(i64 8, ptr %5) #9
  ret i32 %13
}

; Function Attrs: inlinehint nounwind uwtable
define internal ptr @_Py_TYPE(ptr noundef %0) #3 {
  %2 = alloca ptr, align 8
  store ptr %0, ptr %2, align 8, !tbaa !4
  %3 = load ptr, ptr %2, align 8, !tbaa !4
  %4 = getelementptr inbounds nuw %struct._object, ptr %3, i32 0, i32 1
  %5 = load ptr, ptr %4, align 8, !tbaa !32
  ret ptr %5
}

; Function Attrs: nounwind uwtable
define internal ptr @_locale_dcgettext(ptr noundef %0, ptr noundef %1, i64 noundef %2) #0 {
  %4 = alloca ptr, align 8
  %5 = alloca ptr, align 8
  %6 = alloca ptr, align 8
  %7 = alloca i64, align 8
  %8 = alloca ptr, align 8
  %9 = alloca ptr, align 8
  %10 = alloca ptr, align 8
  %11 = alloca i32, align 4
  %12 = alloca i64, align 8
  %13 = alloca i32, align 4
  %14 = alloca i64, align 8
  store ptr %0, ptr %5, align 8, !tbaa !4
  store ptr %1, ptr %6, align 8, !tbaa !16
  store i64 %2, ptr %7, align 8, !tbaa !18
  call void @llvm.lifetime.start.p0(i64 8, ptr %8) #9
  store ptr null, ptr %8, align 8, !tbaa !4
  call void @llvm.lifetime.start.p0(i64 8, ptr %9) #9
  call void @llvm.lifetime.start.p0(i64 8, ptr %10) #9
  call void @llvm.lifetime.start.p0(i64 4, ptr %11) #9
  %15 = load i64, ptr %7, align 8, !tbaa !18
  %16 = icmp sle i64 3, %15
  br i1 %16, label %17, label %20

17:                                               ; preds = %3
  %18 = load i64, ptr %7, align 8, !tbaa !18
  %19 = icmp sle i64 %18, 3
  br i1 %19, label %25, label %20

20:                                               ; preds = %17, %3
  %21 = load i64, ptr %7, align 8, !tbaa !18
  %22 = call i32 @_PyArg_CheckPositional(ptr noundef @.str.8, i64 noundef %21, i64 noundef 3, i64 noundef 3)
  %23 = icmp ne i32 %22, 0
  br i1 %23, label %25, label %24

24:                                               ; preds = %20
  br label %105

25:                                               ; preds = %20, %17
  %26 = load ptr, ptr %6, align 8, !tbaa !16
  %27 = getelementptr ptr, ptr %26, i64 0
  %28 = load ptr, ptr %27, align 8, !tbaa !4
  %29 = icmp eq ptr %28, @_Py_NoneStruct
  br i1 %29, label %30, label %31

30:                                               ; preds = %25
  store ptr null, ptr %9, align 8, !tbaa !20
  br label %62

31:                                               ; preds = %25
  %32 = load ptr, ptr %6, align 8, !tbaa !16
  %33 = getelementptr ptr, ptr %32, i64 0
  %34 = load ptr, ptr %33, align 8, !tbaa !4
  %35 = call ptr @_Py_TYPE(ptr noundef %34)
  %36 = call i32 @PyType_HasFeature(ptr noundef %35, i64 noundef 268435456)
  %37 = icmp ne i32 %36, 0
  br i1 %37, label %38, label %57

38:                                               ; preds = %31
  call void @llvm.lifetime.start.p0(i64 8, ptr %12) #9
  %39 = load ptr, ptr %6, align 8, !tbaa !16
  %40 = getelementptr ptr, ptr %39, i64 0
  %41 = load ptr, ptr %40, align 8, !tbaa !4
  %42 = call ptr @PyUnicode_AsUTF8AndSize(ptr noundef %41, ptr noundef %12)
  store ptr %42, ptr %9, align 8, !tbaa !20
  %43 = load ptr, ptr %9, align 8, !tbaa !20
  %44 = icmp eq ptr %43, null
  br i1 %44, label %45, label %46

45:                                               ; preds = %38
  store i32 2, ptr %13, align 4
  br label %54

46:                                               ; preds = %38
  %47 = load ptr, ptr %9, align 8, !tbaa !20
  %48 = call i64 @strlen(ptr noundef %47) #10
  %49 = load i64, ptr %12, align 8, !tbaa !18
  %50 = icmp ne i64 %48, %49
  br i1 %50, label %51, label %53

51:                                               ; preds = %46
  %52 = load ptr, ptr @PyExc_ValueError, align 8, !tbaa !4
  call void @PyErr_SetString(ptr noundef %52, ptr noundef @.str.14)
  store i32 2, ptr %13, align 4
  br label %54

53:                                               ; preds = %46
  store i32 0, ptr %13, align 4
  br label %54

54:                                               ; preds = %51, %45, %53
  call void @llvm.lifetime.end.p0(i64 8, ptr %12) #9
  %55 = load i32, ptr %13, align 4
  switch i32 %55, label %107 [
    i32 0, label %56
    i32 2, label %105
  ]

56:                                               ; preds = %54
  br label %61

57:                                               ; preds = %31
  %58 = load ptr, ptr %6, align 8, !tbaa !16
  %59 = getelementptr ptr, ptr %58, i64 0
  %60 = load ptr, ptr %59, align 8, !tbaa !4
  call void @_PyArg_BadArgument(ptr noundef @.str.8, ptr noundef @.str.38, ptr noundef @.str.16, ptr noundef %60)
  br label %105

61:                                               ; preds = %56
  br label %62

62:                                               ; preds = %61, %30
  %63 = load ptr, ptr %6, align 8, !tbaa !16
  %64 = getelementptr ptr, ptr %63, i64 1
  %65 = load ptr, ptr %64, align 8, !tbaa !4
  %66 = call ptr @_Py_TYPE(ptr noundef %65)
  %67 = call i32 @PyType_HasFeature(ptr noundef %66, i64 noundef 268435456)
  %68 = icmp ne i32 %67, 0
  br i1 %68, label %73, label %69

69:                                               ; preds = %62
  %70 = load ptr, ptr %6, align 8, !tbaa !16
  %71 = getelementptr ptr, ptr %70, i64 1
  %72 = load ptr, ptr %71, align 8, !tbaa !4
  call void @_PyArg_BadArgument(ptr noundef @.str.8, ptr noundef @.str.15, ptr noundef @.str.39, ptr noundef %72)
  br label %105

73:                                               ; preds = %62
  %74 = load ptr, ptr %6, align 8, !tbaa !16
  %75 = getelementptr ptr, ptr %74, i64 1
  %76 = load ptr, ptr %75, align 8, !tbaa !4
  %77 = call ptr @PyUnicode_AsUTF8AndSize(ptr noundef %76, ptr noundef %14)
  store ptr %77, ptr %10, align 8, !tbaa !20
  %78 = load ptr, ptr %10, align 8, !tbaa !20
  %79 = icmp eq ptr %78, null
  br i1 %79, label %80, label %81

80:                                               ; preds = %73
  br label %105

81:                                               ; preds = %73
  %82 = load ptr, ptr %10, align 8, !tbaa !20
  %83 = call i64 @strlen(ptr noundef %82) #10
  %84 = load i64, ptr %14, align 8, !tbaa !18
  %85 = icmp ne i64 %83, %84
  br i1 %85, label %86, label %88

86:                                               ; preds = %81
  %87 = load ptr, ptr @PyExc_ValueError, align 8, !tbaa !4
  call void @PyErr_SetString(ptr noundef %87, ptr noundef @.str.14)
  br label %105

88:                                               ; preds = %81
  %89 = load ptr, ptr %6, align 8, !tbaa !16
  %90 = getelementptr ptr, ptr %89, i64 2
  %91 = load ptr, ptr %90, align 8, !tbaa !4
  %92 = call i32 @PyLong_AsInt(ptr noundef %91)
  store i32 %92, ptr %11, align 4, !tbaa !14
  %93 = load i32, ptr %11, align 4, !tbaa !14
  %94 = icmp eq i32 %93, -1
  br i1 %94, label %95, label %99

95:                                               ; preds = %88
  %96 = call ptr @PyErr_Occurred()
  %97 = icmp ne ptr %96, null
  br i1 %97, label %98, label %99

98:                                               ; preds = %95
  br label %105

99:                                               ; preds = %95, %88
  %100 = load ptr, ptr %5, align 8, !tbaa !4
  %101 = load ptr, ptr %9, align 8, !tbaa !20
  %102 = load ptr, ptr %10, align 8, !tbaa !20
  %103 = load i32, ptr %11, align 4, !tbaa !14
  %104 = call ptr @_locale_dcgettext_impl(ptr noundef %100, ptr noundef %101, ptr noundef %102, i32 noundef %103)
  store ptr %104, ptr %8, align 8, !tbaa !4
  br label %105

105:                                              ; preds = %99, %54, %98, %86, %80, %69, %57, %24
  %106 = load ptr, ptr %8, align 8, !tbaa !4
  store ptr %106, ptr %4, align 8
  store i32 1, ptr %13, align 4
  br label %107

107:                                              ; preds = %105, %54
  call void @llvm.lifetime.end.p0(i64 4, ptr %11) #9
  call void @llvm.lifetime.end.p0(i64 8, ptr %10) #9
  call void @llvm.lifetime.end.p0(i64 8, ptr %9) #9
  call void @llvm.lifetime.end.p0(i64 8, ptr %8) #9
  %108 = load ptr, ptr %4, align 8
  ret ptr %108
}